target datalayout = "e-m:e-p270:32:32-p271:32:32-p272:64:64-i64:64-i128:128-f80:128-n8:16:32:64-S128"
target triple = "x86_64-pc-linux-gnu"

%"class.boost::fibers::barrier" = type { i64, i64, i64, %"class.boost::fibers::mutex", %"class.boost::fibers::condition_variable" }
%"class.boost::fibers::mutex" = type { %"class.boost::fibers::detail::spinlock_ttas", %"class.boost::fibers::wait_queue", ptr }
%"class.boost::fibers::detail::spinlock_ttas" = type { %"struct.std::atomic" }
%"struct.std::atomic" = type { i32 }
%"class.boost::fibers::wait_queue" = type { %"class.boost::intrusive::slist" }
%"class.boost::intrusive::slist" = type { %"class.boost::intrusive::slist_impl" }
%"class.boost::intrusive::slist_impl" = type { %"struct.boost::intrusive::slist_impl<boost::intrusive::mhtraits<boost::fibers::waker_with_hook, boost::intrusive::slist_member_hook<>, &boost::fibers::waker_with_hook::waker_queue_hook_>, unsigned long, 4, void>::data_t" }
%"struct.boost::intrusive::slist_impl<boost::intrusive::mhtraits<boost::fibers::waker_with_hook, boost::intrusive::slist_member_hook<>, &boost::fibers::waker_with_hook::waker_queue_hook_>, unsigned long, 4, void>::data_t" = type { %"struct.boost::intrusive::slist_impl<boost::intrusive::mhtraits<boost::fibers::waker_with_hook, boost::intrusive::slist_member_hook<>, &boost::fibers::waker_with_hook::waker_queue_hook_>, unsigned long, 4, void>::root_plus_size" }
%"struct.boost::intrusive::slist_impl<boost::intrusive::mhtraits<boost::fibers::waker_with_hook, boost::intrusive::slist_member_hook<>, &boost::fibers::waker_with_hook::waker_queue_hook_>, unsigned long, 4, void>::root_plus_size" = type { %"struct.boost::intrusive::header_holder_plus_last" }
%"struct.boost::intrusive::header_holder_plus_last" = type { %"struct.boost::intrusive::detail::default_header_holder", ptr }
%"struct.boost::intrusive::detail::default_header_holder" = type { %"struct.boost::intrusive::slist_node" }
%"struct.boost::intrusive::slist_node" = type { ptr }
%"class.boost::fibers::condition_variable" = type { %"class.boost::fibers::condition_variable_any" }
%"class.boost::fibers::condition_variable_any" = type { %"class.boost::fibers::detail::spinlock_ttas", %"class.boost::fibers::wait_queue" }
%"class.std::unique_lock" = type <{ ptr, i8, [7 x i8] }>
%class.anon = type { ptr, ptr }

; Function Attrs: inlinehint mustprogress nounwind uwtable
define internal noundef zeroext i1 @"_ZZN5boost6fibers7barrier4waitEvENK3$_0clEv"(ptr noundef nonnull align 8 dereferenceable(16) %0) #7 align 2 {
  %2 = alloca ptr, align 8
  store ptr %0, ptr %2, align 8, !tbaa !3
  %3 = load ptr, ptr %2, align 8
  %4 = getelementptr inbounds nuw %class.anon, ptr %3, i32 0, i32 1
  %5 = load ptr, ptr %4, align 8, !tbaa !35
  %6 = getelementptr inbounds nuw %class.anon, ptr %3, i32 0, i32 0
  %7 = load ptr, ptr %6, align 8, !tbaa !63
  %8 = load i64, ptr %7, align 8, !tbaa !7
  %9 = getelementptr inbounds nuw %"class.boost::fibers::barrier", ptr %5, i32 0, i32 2
  %10 = load i64, ptr %9, align 8, !tbaa !26
  %11 = icmp ne i64 %8, %10
  ret i1 %11
}

; Function Attrs: mustprogress uwtable
define internal void @"_ZN5boost6fibers22condition_variable_any4waitISt11unique_lockINS0_5mutexEEZNS0_7barrier4waitEvE3$_0EEvRT_T0_"(ptr noundef nonnull align 8 dereferenceable(24) %0, ptr noundef nonnull align 8 dereferenceable(9) %1, ptr %2, ptr %3) #4 align 2 {
  %5 = alloca %class.anon, align 8
  %6 = alloca ptr, align 8
  %7 = alloca ptr, align 8
  %8 = getelementptr inbounds nuw { ptr, ptr }, ptr %5, i32 0, i32 0
  store ptr %2, ptr %8, align 8
  %9 = getelementptr inbounds nuw { ptr, ptr }, ptr %5, i32 0, i32 1
  store ptr %3, ptr %9, align 8
  store ptr %0, ptr %6, align 8, !tbaa !3
  store ptr %1, ptr %7, align 8, !tbaa !3
  %10 = load ptr, ptr %6, align 8
  br label %11

11:                                               ; preds = %14, %4
  %12 = call noundef zeroext i1 @"_ZZN5boost6fibers7barrier4waitEvENK3$_0clEv"(ptr noundef nonnull align 8 dereferenceable(16) %5)
  %13 = xor i1 %12, true
  br i1 %13, label %14, label %16

14:                                               ; preds = %11
  %15 = load ptr, ptr %7, align 8, !tbaa !3
  call void @_ZN5boost6fibers22condition_variable_any4waitISt11unique_lockINS0_5mutexEEEEvRT_(ptr noundef nonnull align 8 dereferenceable(24) %10, ptr noundef nonnull align 8 dereferenceable(9) %15)
  br label %11, !llvm.loop !62

16:                                               ; preds = %11
  ret void
}

; Function Attrs: mustprogress uwtable
define linkonce_odr hidden void @_ZNSt11unique_lockIN5boost6fibers5mutexEE4lockEv(ptr noundef nonnull align 8 dereferenceable(9) %0) #4 comdat align 2 {
  %2 = alloca ptr, align 8
  store ptr %0, ptr %2, align 8, !tbaa !3
  %3 = load ptr, ptr %2, align 8
  %4 = getelementptr inbounds nuw %"class.std::unique_lock", ptr %3, i32 0, i32 0
  %5 = load ptr, ptr %4, align 8, !tbaa !37
  %6 = icmp ne ptr %5, null
  br i1 %6, label %8, label %7

7:                                                ; preds = %1
  call void @_ZSt20__throw_system_errori(i32 noundef 1) #19
  unreachable

8:                                                ; preds = %1
  %9 = getelementptr inbounds nuw %"class.std::unique_lock", ptr %3, i32 0, i32 1
  %10 = load i8, ptr %9, align 8, !tbaa !40, !range !41, !noundef !42
  %11 = trunc i8 %10 to i1
  br i1 %11, label %12, label %13

12:                                               ; preds = %8
  call void @_ZSt20__throw_system_errori(i32 noundef 35) #19
  unreachable

13:                                               ; preds = %8
  %14 = getelementptr inbounds nuw %"class.std::unique_lock", ptr %3, i32 0, i32 0
  %15 = load ptr, ptr %14, align 8, !tbaa !37
  call void @_ZN5boost6fibers5mutex4lockEv(ptr noundef nonnull align 8 dereferenceable(32) %15)
  %16 = getelementptr inbounds nuw %"class.std::unique_lock", ptr %3, i32 0, i32 1
  store i8 1, ptr %16, align 8, !tbaa !40
  br label %17

17:                                               ; preds = %13
  br label %18

18:                                               ; preds = %17
  ret void
}

; Function Attrs: mustprogress uwtable
define internal void @"_ZN5boost6fibers18condition_variable4waitIZNS0_7barrier4waitEvE3$_0EEvRSt11unique_lockINS0_5mutexEET_"(ptr noundef nonnull align 8 dereferenceable(24) %0, ptr noundef nonnull align 8 dereferenceable(9) %1, ptr %2, ptr %3) #4 align 2 {
  %5 = alloca %class.anon, align 8
  %6 = alloca ptr, align 8
  %7 = alloca ptr, align 8
  %8 = alloca %class.anon, align 8
  %9 = getelementptr inbounds nuw { ptr, ptr }, ptr %5, i32 0, i32 0
  store ptr %2, ptr %9, align 8
  %10 = getelementptr inbounds nuw { ptr, ptr }, ptr %5, i32 0, i32 1
  store ptr %3, ptr %10, align 8
  store ptr %0, ptr %6, align 8, !tbaa !3
  store ptr %1, ptr %7, align 8, !tbaa !3
  %11 = load ptr, ptr %6, align 8
  %12 = getelementptr inbounds nuw %"class.boost::fibers::condition_variable", ptr %11, i32 0, i32 0
  %13 = load ptr, ptr %7, align 8, !tbaa !3
  call void @llvm.memcpy.p0.p0.i64(ptr align 8 %8, ptr align 8 %5, i64 16, i1 false), !tbaa.struct !43
  %14 = getelementptr inbounds nuw { ptr, ptr }, ptr %8, i32 0, i32 0
  %15 = load ptr, ptr %14, align 8
  %16 = getelementptr inbounds nuw { ptr, ptr }, ptr %8, i32 0, i32 1
  %17 = load ptr, ptr %16, align 8
  call void @"_ZN5boost6fibers22condition_variable_any4waitISt11unique_lockINS0_5mutexEEZNS0_7barrier4waitEvE3$_0EEvRT_T0_"(ptr noundef nonnull align 8 dereferenceable(24) %12, ptr noundef nonnull align 8 dereferenceable(9) %13, ptr %15, ptr %17)
  ret void
}

; Function Attrs: mustprogress nounwind uwtable
define linkonce_odr hidden void @_ZN5boost6fibers18condition_variable10notify_allEv(ptr noundef nonnull align 8 dereferenceable(24) %0) #8 comdat align 2 {
  %2 = alloca ptr, align 8
  store ptr %0, ptr %2, align 8, !tbaa !3
  %3 = load ptr, ptr %2, align 8
  %4 = getelementptr inbounds nuw %"class.boost::fibers::condition_variable", ptr %3, i32 0, i32 0
  call void @_ZN5boost6fibers22condition_variable_any10notify_allEv(ptr noundef nonnull align 8 dereferenceable(24) %4) #3
  ret void
}

; Function Attrs: mustprogress uwtable
define linkonce_odr hidden void @_ZNSt11unique_lockIN5boost6fibers5mutexEE6unlockEv(ptr noundef nonnull align 8 dereferenceable(9) %0) #4 comdat align 2 {
  %2 = alloca ptr, align 8
  store ptr %0, ptr %2, align 8, !tbaa !3
  %3 = load ptr, ptr %2, align 8
  %4 = getelementptr inbounds nuw %"class.std::unique_lock", ptr %3, i32 0, i32 1
  %5 = load i8, ptr %4, align 8, !tbaa !40, !range !41, !noundef !42
  %6 = trunc i8 %5 to i1
  br i1 %6, label %8, label %7

7:                                                ; preds = %1
  call void @_ZSt20__throw_system_errori(i32 noundef 1) #19
  unreachable

8:                                                ; preds = %1
  %9 = getelementptr inbounds nuw %"class.std::unique_lock", ptr %3, i32 0, i32 0
  %10 = load ptr, ptr %9, align 8, !tbaa !37
  %11 = icmp ne ptr %10, null
  br i1 %11, label %12, label %16

12:                                               ; preds = %8
  %13 = getelementptr inbounds nuw %"class.std::unique_lock", ptr %3, i32 0, i32 0
  %14 = load ptr, ptr %13, align 8, !tbaa !37
  call void @_ZN5boost6fibers5mutex6unlockEv(ptr noundef nonnull align 8 dereferenceable(32) %14)
  %15 = getelementptr inbounds nuw %"class.std::unique_lock", ptr %3, i32 0, i32 1
  store i8 0, ptr %15, align 8, !tbaa !40
  br label %16

16:                                               ; preds = %12, %8
  br label %17

17:                                               ; preds = %16
  ret void
}

; Function Attrs: mustprogress uwtable
define linkonce_odr hidden void @_ZNSt11unique_lockIN5boost6fibers5mutexEEC2ERS2_(ptr noundef nonnull align 8 dereferenceable(9) %0, ptr noundef nonnull align 8 dereferenceable(32) %1) unnamed_addr #4 comdat align 2 {
  %3 = alloca ptr, align 8
  %4 = alloca ptr, align 8
  store ptr %0, ptr %3, align 8, !tbaa !3
  store ptr %1, ptr %4, align 8, !tbaa !3
  %5 = load ptr, ptr %3, align 8
  %6 = getelementptr inbounds nuw %"class.std::unique_lock", ptr %5, i32 0, i32 0
  %7 = load ptr, ptr %4, align 8, !tbaa !3
  store ptr %7, ptr %6, align 8, !tbaa !37
  %8 = getelementptr inbounds nuw %"class.std::unique_lock", ptr %5, i32 0, i32 1
  store i8 0, ptr %8, align 8, !tbaa !40
  call void @_ZNSt11unique_lockIN5boost6fibers5mutexEE4lockEv(ptr noundef nonnull align 8 dereferenceable(9) %5)
  %9 = getelementptr inbounds nuw %"class.std::unique_lock", ptr %5, i32 0, i32 1
  store i8 1, ptr %9, align 8, !tbaa !40
  ret void
}

; Function Attrs: mustprogress uwtable
define noundef zeroext i1 @_ZN5boost6fibers7barrier4waitEv(ptr noundef nonnull align 8 dereferenceable(80) %0) #4 align 2 personality ptr @__gxx_personality_v0 {
  %2 = alloca i1, align 1
  %3 = alloca ptr, align 8
  %4 = alloca %"class.std::unique_lock", align 8
  %5 = alloca i64, align 8
  %6 = alloca ptr, align 8
  %7 = alloca i32, align 4
  %8 = alloca i32, align 4
  %9 = alloca %class.anon, align 8
  store ptr %0, ptr %3, align 8, !tbaa !3
  %10 = load ptr, ptr %3, align 8
  call void @llvm.lifetime.start.p0(i64 16, ptr %4) #3
  %11 = getelementptr inbounds nuw %"class.boost::fibers::barrier", ptr %10, i32 0, i32 3
  call void @_ZNSt11unique_lockIN5boost6fibers5mutexEEC2ERS2_(ptr noundef nonnull align 8 dereferenceable(9) %4, ptr noundef nonnull align 8 dereferenceable(32) %11)
  call void @llvm.lifetime.start.p0(i64 8, ptr %5) #3
  %12 = getelementptr inbounds nuw %"class.boost::fibers::barrier", ptr %10, i32 0, i32 2
  %13 = load i64, ptr %12, align 8, !tbaa !26
  store i64 %13, ptr %5, align 8, !tbaa !7
  %14 = getelementptr inbounds nuw %"class.boost::fibers::barrier", ptr %10, i32 0, i32 1
  %15 = load i64, ptr %14, align 8, !tbaa !25
  %16 = add i64 %15, -1
  store i64 %16, ptr %14, align 8, !tbaa !25
  %17 = icmp eq i64 0, %16
  br i1 %17, label %18, label %31

18:                                               ; preds = %1
  %19 = getelementptr inbounds nuw %"class.boost::fibers::barrier", ptr %10, i32 0, i32 2
  %20 = load i64, ptr %19, align 8, !tbaa !26
  %21 = add i64 %20, 1
  store i64 %21, ptr %19, align 8, !tbaa !26
  %22 = getelementptr inbounds nuw %"class.boost::fibers::barrier", ptr %10, i32 0, i32 0
  %23 = load i64, ptr %22, align 8, !tbaa !9
  %24 = getelementptr inbounds nuw %"class.boost::fibers::barrier", ptr %10, i32 0, i32 1
  store i64 %23, ptr %24, align 8, !tbaa !25
  invoke void @_ZNSt11unique_lockIN5boost6fibers5mutexEE6unlockEv(ptr noundef nonnull align 8 dereferenceable(9) %4)
          to label %25 unwind label %27

25:                                               ; preds = %18
  %26 = getelementptr inbounds nuw %"class.boost::fibers::barrier", ptr %10, i32 0, i32 4
  call void @_ZN5boost6fibers18condition_variable10notify_allEv(ptr noundef nonnull align 8 dereferenceable(24) %26) #3
  store i1 true, ptr %2, align 1
  store i32 1, ptr %8, align 4
  br label %40

27:                                               ; preds = %31, %18
  %28 = landingpad { ptr, i32 }
          cleanup
  %29 = extractvalue { ptr, i32 } %28, 0
  store ptr %29, ptr %6, align 8
  %30 = extractvalue { ptr, i32 } %28, 1
  store i32 %30, ptr %7, align 4
  call void @llvm.lifetime.end.p0(i64 8, ptr %5) #3
  call void @_ZNSt11unique_lockIN5boost6fibers5mutexEED2Ev(ptr noundef nonnull align 8 dereferenceable(9) %4) #3
  call void @llvm.lifetime.end.p0(i64 16, ptr %4) #3
  br label %42

31:                                               ; preds = %1
  %32 = getelementptr inbounds nuw %"class.boost::fibers::barrier", ptr %10, i32 0, i32 4
  %33 = getelementptr inbounds nuw %class.anon, ptr %9, i32 0, i32 0
  store ptr %5, ptr %33, align 8, !tbaa !3
  %34 = getelementptr inbounds nuw %class.anon, ptr %9, i32 0, i32 1
  store ptr %10, ptr %34, align 8, !tbaa !35
  %35 = getelementptr inbounds nuw { ptr, ptr }, ptr %9, i32 0, i32 0
  %36 = load ptr, ptr %35, align 8
  %37 = getelementptr inbounds nuw { ptr, ptr }, ptr %9, i32 0, i32 1
  %38 = load ptr, ptr %37, align 8
  invoke void @"_ZN5boost6fibers18condition_variable4waitIZNS0_7barrier4waitEvE3$_0EEvRSt11unique_lockINS0_5mutexEET_"(ptr noundef nonnull align 8 dereferenceable(24) %32, ptr noundef nonnull align 8 dereferenceable(9) %4, ptr %36, ptr %38)
          to label %39 unwind label %27

39:                                               ; preds = %31
  store i1 false, ptr %2, align 1
  store i32 1, ptr %8, align 4
  br label %40

40:                                               ; preds = %39, %25
  call void @llvm.lifetime.end.p0(i64 8, ptr %5) #3
  call void @_ZNSt11unique_lockIN5boost6fibers5mutexEED2Ev(ptr noundef nonnull align 8 dereferenceable(9) %4) #3
  call void @llvm.lifetime.end.p0(i64 16, ptr %4) #3
  %41 = load i1, ptr %2, align 1
  ret i1 %41

42:                                               ; preds = %27
  %43 = load ptr, ptr %6, align 8
  %44 = load i32, ptr %7, align 4
  %45 = insertvalue { ptr, i32 } poison, ptr %43, 0
  %46 = insertvalue { ptr, i32 } %45, i32 %44, 1
  resume { ptr, i32 } %46
}