; Function Attrs: mustprogress uwtable
define noundef zeroext i1 @_ZN5boost6fibers7barrier4waitEv(ptr noundef nonnull align 8 dereferenceable(80) %0) local_unnamed_addr #3 align 2 personality ptr @__gxx_personality_v0 {
  %2 = alloca %"class.std::unique_lock", align 8
  call void @llvm.lifetime.start.p0(i64 16, ptr nonnull %2) #21
  %3 = getelementptr inbounds nuw i8, ptr %0, i64 24
  store ptr %3, ptr %2, align 8, !tbaa !32
  %4 = getelementptr inbounds nuw i8, ptr %2, i64 8
  tail call void @_ZN5boost6fibers5mutex4lockEv(ptr noundef nonnull align 8 dereferenceable(32) %3)
  store i8 1, ptr %4, align 8, !tbaa !35
  %5 = getelementptr inbounds nuw i8, ptr %0, i64 16
  %6 = load i64, ptr %5, align 8, !tbaa !36
  %7 = getelementptr inbounds nuw i8, ptr %0, i64 8
  %8 = load i64, ptr %7, align 8, !tbaa !23
  %9 = add i64 %8, -1
  store i64 %9, ptr %7, align 8, !tbaa !23
  %10 = icmp eq i64 %9, 0
  br i1 %10, label %11, label %16

11:                                               ; preds = %1
  %12 = add i64 %6, 1
  store i64 %12, ptr %5, align 8, !tbaa !36
  %13 = load i64, ptr %0, align 8, !tbaa !3
  store i64 %13, ptr %7, align 8, !tbaa !23
  invoke void @_ZN5boost6fibers5mutex6unlockEv(ptr noundef nonnull align 8 dereferenceable(32) %3)
          to label %"_ZN5boost6fibers18condition_variable4waitIZNS0_7barrier4waitEvE3$_0EEvRSt11unique_lockINS0_5mutexEET_.exit.thread" unwind label %.loopexit.split-lp

"_ZN5boost6fibers18condition_variable4waitIZNS0_7barrier4waitEvE3$_0EEvRSt11unique_lockINS0_5mutexEET_.exit.thread": ; preds = %11
  %14 = getelementptr inbounds nuw i8, ptr %0, i64 56
  tail call void @_ZN5boost6fibers22condition_variable_any10notify_allEv(ptr noundef nonnull align 8 dereferenceable(24) %14) #21
  br label %_ZNSt11unique_lockIN5boost6fibers5mutexEED2Ev.exit

.loopexit:                                        ; preds = %.lr.ph.i.i
  %lpad.loopexit = landingpad { ptr, i32 }
          cleanup
  br label %15

.loopexit.split-lp:                               ; preds = %11
  %lpad.loopexit.split-lp = landingpad { ptr, i32 }
          cleanup
  br label %15

15:                                               ; preds = %.loopexit.split-lp, %.loopexit
  %lpad.phi = phi { ptr, i32 } [ %lpad.loopexit, %.loopexit ], [ %lpad.loopexit.split-lp, %.loopexit.split-lp ]
  call void @_ZNSt11unique_lockIN5boost6fibers5mutexEED2Ev(ptr noundef nonnull align 8 dereferenceable(9) %2) #21
  call void @llvm.lifetime.end.p0(i64 16, ptr nonnull %2) #21
  resume { ptr, i32 } %lpad.phi

16:                                               ; preds = %1
  %17 = getelementptr inbounds nuw i8, ptr %0, i64 56
  br label %.lr.ph.i.i

.lr.ph.i.i:                                       ; preds = %16, %.noexc4
  invoke void @_ZN5boost6fibers22condition_variable_any4waitISt11unique_lockINS0_5mutexEEEEvRT_(ptr noundef nonnull align 8 dereferenceable(24) %17, ptr noundef nonnull align 8 dereferenceable(9) %2)
          to label %.noexc4 unwind label %.loopexit

.noexc4:                                          ; preds = %.lr.ph.i.i
  %.val2.val.i.i = load i64, ptr %5, align 8, !tbaa !36
  %.not.i.i = icmp eq i64 %6, %.val2.val.i.i
  br i1 %.not.i.i, label %.lr.ph.i.i, label %"_ZN5boost6fibers18condition_variable4waitIZNS0_7barrier4waitEvE3$_0EEvRSt11unique_lockINS0_5mutexEET_.exit", !llvm.loop !37

"_ZN5boost6fibers18condition_variable4waitIZNS0_7barrier4waitEvE3$_0EEvRSt11unique_lockINS0_5mutexEET_.exit": ; preds = %.noexc4
  %.pre = load i8, ptr %4, align 8, !tbaa !35, !range !38
  %18 = trunc nuw i8 %.pre to i1
  br i1 %18, label %19, label %_ZNSt11unique_lockIN5boost6fibers5mutexEED2Ev.exit

19:                                               ; preds = %"_ZN5boost6fibers18condition_variable4waitIZNS0_7barrier4waitEvE3$_0EEvRSt11unique_lockINS0_5mutexEET_.exit"
  %20 = load ptr, ptr %2, align 8, !tbaa !32
  %.not.i.i5 = icmp eq ptr %20, null
  br i1 %.not.i.i5, label %_ZNSt11unique_lockIN5boost6fibers5mutexEED2Ev.exit, label %21

21:                                               ; preds = %19
  invoke void @_ZN5boost6fibers5mutex6unlockEv(ptr noundef nonnull align 8 dereferenceable(32) %20)
          to label %_ZNSt11unique_lockIN5boost6fibers5mutexEED2Ev.exit unwind label %22

22:                                               ; preds = %21
  %23 = landingpad { ptr, i32 }
          catch ptr null
  %24 = extractvalue { ptr, i32 } %23, 0
  call void @__clang_call_terminate(ptr %24) #24
  unreachable

_ZNSt11unique_lockIN5boost6fibers5mutexEED2Ev.exit: ; preds = %21, %"_ZN5boost6fibers18condition_variable4waitIZNS0_7barrier4waitEvE3$_0EEvRSt11unique_lockINS0_5mutexEET_.exit.thread", %"_ZN5boost6fibers18condition_variable4waitIZNS0_7barrier4waitEvE3$_0EEvRSt11unique_lockINS0_5mutexEET_.exit", %19
  call void @llvm.lifetime.end.p0(i64 16, ptr nonnull %2) #21
  ret i1 %10
}